CCS PCM C Compiler, Version 4.104, 5967               06-jul.-19 19:29

               Filename: C:\Users\agustin\Documents\Youngg board\ardupic\ardupic.lst

               ROM used: 148 words (2%)
                         Largest free fragment is 2048
               RAM used: 7 (2%) at main() level
                         7 (2%) worst case
               Stack:    0 locations

*
0000:  MOVLW  00
0001:  MOVWF  0A
0002:  GOTO   004
0003:  NOP
.................... #include "C:\Users\agustin\Documents\Youngg board\ardupic\ardupic.h" 
.................... #include <16F877A.h> 
.................... //////// Standard Header file for the PIC16F877A device //////////////// 
.................... #device PIC16F877A 
.................... #list 
....................  
.................... #device adc=8 
....................  
.................... #FUSES NOWDT                 	//No Watch Dog Timer 
.................... #FUSES HS                    	//High speed Osc (> 4mhz for PCM/PCH) (>10mhz for PCD) 
.................... #FUSES PUT                   	//Power Up Timer 
.................... #FUSES NOPROTECT             	//Code not protected from reading 
.................... #FUSES NODEBUG               	//No Debug mode for ICD 
.................... #FUSES NOBROWNOUT            	//No brownout reset 
.................... #FUSES NOLVP                 	//No low voltage prgming, B3(PIC16) or B5(PIC18) used for I/O 
.................... #FUSES NOCPD                 	//No EE protection 
.................... #FUSES NOWRT                 	//Program memory not write protected 
.................... #FUSES RESERVED              	//Used to set the reserved FUSE bits 
....................  
.................... #use delay(clock=4000000) 
....................  
....................  
....................   #ZERO_RAM 
....................  
.................... int puto;  
.................... void main() 
.................... { 
*
0004:  MOVF   03,W
0005:  ANDLW  1F
0006:  MOVWF  03
0007:  MOVLW  57
0008:  MOVWF  77
0009:  MOVLW  20
000A:  MOVWF  04
000B:  BCF    03.7
000C:  CLRF   00
000D:  INCF   04,F
000E:  DECFSZ 77,F
000F:  GOTO   00C
0010:  CLRF   78
0011:  CLRF   79
0012:  CLRF   7A
0013:  CLRF   7B
0014:  CLRF   7C
0015:  CLRF   7D
0016:  CLRF   7E
0017:  MOVLW  50
0018:  MOVWF  77
0019:  MOVLW  A0
001A:  MOVWF  04
001B:  BCF    03.7
001C:  CLRF   00
001D:  INCF   04,F
001E:  DECFSZ 77,F
001F:  GOTO   01C
0020:  MOVLW  60
0021:  MOVWF  77
0022:  MOVLW  10
0023:  MOVWF  04
0024:  BSF    03.7
0025:  CLRF   00
0026:  INCF   04,F
0027:  DECFSZ 77,F
0028:  GOTO   025
0029:  BCF    03.7
002A:  MOVLW  60
002B:  MOVWF  77
002C:  MOVLW  90
002D:  MOVWF  04
002E:  BSF    03.7
002F:  CLRF   00
0030:  INCF   04,F
0031:  DECFSZ 77,F
0032:  GOTO   02F
0033:  BCF    03.7
0034:  CLRF   20
0035:  CLRF   04
0036:  BCF    03.7
0037:  MOVLW  1F
0038:  ANDWF  03,F
0039:  BSF    03.5
003A:  BSF    1F.0
003B:  BSF    1F.1
003C:  BSF    1F.2
003D:  BCF    1F.3
003E:  MOVLW  07
003F:  MOVWF  1C
....................  
....................    setup_adc_ports(NO_ANALOGS); 
*
0043:  BSF    03.5
0044:  BSF    1F.0
0045:  BSF    1F.1
0046:  BSF    1F.2
0047:  BCF    1F.3
....................    setup_adc(ADC_CLOCK_DIV_2); 
0048:  BCF    1F.6
0049:  BCF    03.5
004A:  BCF    1F.6
004B:  BCF    1F.7
004C:  BSF    03.5
004D:  BCF    1F.7
004E:  BCF    03.5
004F:  BSF    1F.0
....................    setup_psp(PSP_DISABLED); 
0050:  BSF    03.5
0051:  BCF    09.4
....................    setup_spi(SPI_SS_DISABLED); 
0052:  BCF    03.5
0053:  BCF    14.5
0054:  BCF    21.5
0055:  MOVF   21,W
0056:  BSF    03.5
0057:  MOVWF  07
0058:  BCF    03.5
0059:  BSF    21.4
005A:  MOVF   21,W
005B:  BSF    03.5
005C:  MOVWF  07
005D:  BCF    03.5
005E:  BCF    21.3
005F:  MOVF   21,W
0060:  BSF    03.5
0061:  MOVWF  07
0062:  MOVLW  01
0063:  BCF    03.5
0064:  MOVWF  14
0065:  MOVLW  00
0066:  BSF    03.5
0067:  MOVWF  14
....................    setup_timer_0(RTCC_INTERNAL|RTCC_DIV_1); 
0068:  MOVF   01,W
0069:  ANDLW  C7
006A:  IORLW  08
006B:  MOVWF  01
....................    setup_timer_1(T1_DISABLED); 
006C:  BCF    03.5
006D:  CLRF   10
....................    setup_timer_2(T2_DISABLED,0,1); 
006E:  MOVLW  00
006F:  MOVWF  78
0070:  MOVWF  12
0071:  MOVLW  00
0072:  BSF    03.5
0073:  MOVWF  12
....................    setup_comparator(NC_NC_NC_NC); 
0074:  MOVLW  07
0075:  MOVWF  1C
0076:  MOVF   05,W
0077:  MOVWF  05
0078:  MOVLW  03
0079:  MOVWF  77
007A:  DECFSZ 77,F
007B:  GOTO   07A
007C:  MOVF   1C,W
007D:  BCF    03.5
007E:  BCF    0D.6
....................    setup_vref(FALSE); 
007F:  BSF    03.5
0080:  CLRF   1D
....................  
....................    // TODO: USER CODE!! 
....................     
....................    while(true) 
....................  { 
....................   puto = input(PIN_B0); 
0081:  BSF    06.0
0082:  BCF    03.5
0083:  CLRF   20
0084:  BTFSC  06.0
0085:  INCF   20,F
....................   if(puto == 1) 
0086:  DECFSZ 20,W
0087:  GOTO   08D
....................   { 
....................    output_high(PIN_A0); 
0088:  BSF    03.5
0089:  BCF    05.0
008A:  BCF    03.5
008B:  BSF    05.0
....................   /* delay_ms(500);  
....................    output_low(PIN_A0); 
....................    delay_ms(500);*/ 
....................   } 
....................    else 
008C:  GOTO   091
....................    { 
....................     output_low(PIN_A0); 
008D:  BSF    03.5
008E:  BCF    05.0
008F:  BCF    03.5
0090:  BCF    05.0
....................     //esewey 
....................    } 
....................  } 
0091:  BSF    03.5
0092:  GOTO   081
.................... } 
0093:  SLEEP

Configuration Fuses:
   Word  1: 3F32   HS NOWDT PUT NODEBUG NOPROTECT NOBROWNOUT NOLVP NOCPD NOWRT
